target datalayout = "e-m:e-p270:32:32-p271:32:32-p272:64:64-i64:64-i128:128-f80:128-n8:16:32:64-S128"
target triple = "x86_64-pc-linux-gnu"

%struct.t_psdata = type { ptr, %"class.std::vector", float, i32 }
%"class.std::vector" = type { %"struct.std::_Vector_base" }
%"struct.std::_Vector_base" = type { %"struct.std::_Vector_base<t_rgb, std::allocator<t_rgb>>::_Vector_impl" }
%"struct.std::_Vector_base<t_rgb, std::allocator<t_rgb>>::_Vector_impl" = type { %"struct.std::_Vector_base<t_rgb, std::allocator<t_rgb>>::_Vector_impl_data" }
%"struct.std::_Vector_base<t_rgb, std::allocator<t_rgb>>::_Vector_impl_data" = type { ptr, ptr, ptr }
%"class.std::__cxx11::basic_string" = type { %"struct.std::__cxx11::basic_string<char>::_Alloc_hider", i64, %union.anon }
%"struct.std::__cxx11::basic_string<char>::_Alloc_hider" = type { ptr }
%union.anon = type { i64, [8 x i8] }
%"class.std::filesystem::__cxx11::path" = type { %"class.std::__cxx11::basic_string", %"struct.std::filesystem::__cxx11::path::_List" }
%"struct.std::filesystem::__cxx11::path::_List" = type { %"class.std::unique_ptr" }
%"class.std::unique_ptr" = type { %"struct.std::__uniq_ptr_data" }
%"struct.std::__uniq_ptr_data" = type { %"class.std::__uniq_ptr_impl" }
%"class.std::__uniq_ptr_impl" = type { %"class.std::tuple" }
%"class.std::tuple" = type { %"struct.std::_Tuple_impl" }
%"struct.std::_Tuple_impl" = type { %"struct.std::_Head_base.4" }
%"struct.std::_Head_base.4" = type { ptr }

@.str.37 = private unnamed_addr constant [9 x i8] c"%g %g m\0A\00", align 1
@.str.48 = private unnamed_addr constant [11 x i8] c"(%s) show\0A\00", align 1
@.str.52 = private unnamed_addr constant [18 x i8] c"(%s) stringwidth\0A\00", align 1
@.str.53 = private unnamed_addr constant [22 x i8] c"exch 0 exch pop exch\0A\00", align 1
@.str.54 = private unnamed_addr constant [21 x i8] c"exch 2 div neg exch\0A\00", align 1
@.str.55 = private unnamed_addr constant [15 x i8] c"exch neg exch\0A\00", align 1
@.str.56 = private unnamed_addr constant [124 x i8] c"generated/home/dtcxzyw/WorkSpace/Projects/compilers/llvm-opt-benchmark/bench/gromacs/gromacs/src/gromacs/fileio/writeps.cpp\00", align 1
@.str.57 = private unnamed_addr constant [34 x i8] c"invalid position index (expos=%d)\00", align 1
@.str.58 = private unnamed_addr constant [19 x i8] c"rmoveto (%s) show\0A\00", align 1

; Function Attrs: mustprogress nounwind uwtable
define available_externally noundef ptr @_ZNKSt7__cxx1112basic_stringIcSt11char_traitsIcESaIcEE7_M_dataEv(ptr noundef nonnull align 8 dereferenceable(32) %0) #3 align 2 {
  %2 = alloca ptr, align 8
  store ptr %0, ptr %2, align 8, !tbaa !30
  %3 = load ptr, ptr %2, align 8
  %4 = getelementptr inbounds nuw %"class.std::__cxx11::basic_string", ptr %3, i32 0, i32 0
  %5 = getelementptr inbounds nuw %"struct.std::__cxx11::basic_string<char>::_Alloc_hider", ptr %4, i32 0, i32 0
  %6 = load ptr, ptr %5, align 8, !tbaa !61
  ret ptr %6
}

; Function Attrs: mustprogress nounwind uwtable
define available_externally noundef ptr @_ZNKSt7__cxx1112basic_stringIcSt11char_traitsIcESaIcEE5c_strEv(ptr noundef nonnull align 8 dereferenceable(32) %0) #3 align 2 {
  %2 = alloca ptr, align 8
  store ptr %0, ptr %2, align 8, !tbaa !30
  %3 = load ptr, ptr %2, align 8
  %4 = call noundef ptr @_ZNKSt7__cxx1112basic_stringIcSt11char_traitsIcESaIcEE7_M_dataEv(ptr noundef nonnull align 8 dereferenceable(32) %3)
  ret ptr %4
}

; Function Attrs: mustprogress nounwind uwtable
define void @_Z9ps_movetoP8t_psdataff(ptr noundef %0, float noundef %1, float noundef %2) #3 {
  %4 = alloca ptr, align 8
  %5 = alloca float, align 4
  %6 = alloca float, align 4
  store ptr %0, ptr %4, align 8, !tbaa !26
  store float %1, ptr %5, align 4, !tbaa !15
  store float %2, ptr %6, align 4, !tbaa !15
  %7 = load ptr, ptr %4, align 8, !tbaa !26
  %8 = getelementptr inbounds nuw %struct.t_psdata, ptr %7, i32 0, i32 0
  %9 = load ptr, ptr %8, align 8, !tbaa !17
  %10 = load float, ptr %5, align 4, !tbaa !15
  %11 = fpext float %10 to double
  %12 = load float, ptr %6, align 4, !tbaa !15
  %13 = fpext float %12 to double
  %14 = call i32 (ptr, ptr, ...) @fprintf(ptr noundef %9, ptr noundef @.str.37, double noundef %11, double noundef %13) #14
  ret void
}

; Function Attrs: mustprogress nounwind uwtable
define void @_Z7ps_textP8t_psdataffRKNSt7__cxx1112basic_stringIcSt11char_traitsIcESaIcEEE(ptr noundef %0, float noundef %1, float noundef %2, ptr noundef nonnull align 8 dereferenceable(32) %3) #3 {
  %5 = alloca ptr, align 8
  %6 = alloca float, align 4
  %7 = alloca float, align 4
  %8 = alloca ptr, align 8
  store ptr %0, ptr %5, align 8, !tbaa !26
  store float %1, ptr %6, align 4, !tbaa !15
  store float %2, ptr %7, align 4, !tbaa !15
  store ptr %3, ptr %8, align 8, !tbaa !30
  %9 = load ptr, ptr %5, align 8, !tbaa !26
  %10 = load float, ptr %6, align 4, !tbaa !15
  %11 = load float, ptr %7, align 4, !tbaa !15
  call void @_Z9ps_movetoP8t_psdataff(ptr noundef %9, float noundef %10, float noundef %11)
  %12 = load ptr, ptr %5, align 8, !tbaa !26
  %13 = getelementptr inbounds nuw %struct.t_psdata, ptr %12, i32 0, i32 0
  %14 = load ptr, ptr %13, align 8, !tbaa !17
  %15 = load ptr, ptr %8, align 8, !tbaa !30
  %16 = call noundef ptr @_ZNKSt7__cxx1112basic_stringIcSt11char_traitsIcESaIcEE5c_strEv(ptr noundef nonnull align 8 dereferenceable(32) %15) #14
  %17 = call i32 (ptr, ptr, ...) @fprintf(ptr noundef %14, ptr noundef @.str.48, ptr noundef %16) #14
  ret void
}

; Function Attrs: mustprogress uwtable
define void @_Z8ps_ctextP8t_psdataffRKNSt7__cxx1112basic_stringIcSt11char_traitsIcESaIcEEEi(ptr noundef %0, float noundef %1, float noundef %2, ptr noundef nonnull align 8 dereferenceable(32) %3, i32 noundef %4) #0 personality ptr @__gxx_personality_v0 {
  %6 = alloca ptr, align 8
  %7 = alloca float, align 4
  %8 = alloca float, align 4
  %9 = alloca ptr, align 8
  %10 = alloca i32, align 4
  %11 = alloca %"class.std::filesystem::__cxx11::path", align 8
  %12 = alloca ptr, align 8
  %13 = alloca i32, align 4
  store ptr %0, ptr %6, align 8, !tbaa !26
  store float %1, ptr %7, align 4, !tbaa !15
  store float %2, ptr %8, align 4, !tbaa !15
  store ptr %3, ptr %9, align 8, !tbaa !30
  store i32 %4, ptr %10, align 4, !tbaa !69
  %14 = load i32, ptr %10, align 4, !tbaa !69
  %15 = icmp eq i32 %14, 1
  br i1 %15, label %16, label %21

16:                                               ; preds = %5
  %17 = load ptr, ptr %6, align 8, !tbaa !26
  %18 = load float, ptr %7, align 4, !tbaa !15
  %19 = load float, ptr %8, align 4, !tbaa !15
  %20 = load ptr, ptr %9, align 8, !tbaa !30
  call void @_Z7ps_textP8t_psdataffRKNSt7__cxx1112basic_stringIcSt11char_traitsIcESaIcEEE(ptr noundef %17, float noundef %18, float noundef %19, ptr noundef nonnull align 8 dereferenceable(32) %20)
  br label %61

21:                                               ; preds = %5
  %22 = load ptr, ptr %6, align 8, !tbaa !26
  %23 = load float, ptr %7, align 4, !tbaa !15
  %24 = load float, ptr %8, align 4, !tbaa !15
  call void @_Z9ps_movetoP8t_psdataff(ptr noundef %22, float noundef %23, float noundef %24)
  %25 = load ptr, ptr %6, align 8, !tbaa !26
  %26 = getelementptr inbounds nuw %struct.t_psdata, ptr %25, i32 0, i32 0
  %27 = load ptr, ptr %26, align 8, !tbaa !17
  %28 = load ptr, ptr %9, align 8, !tbaa !30
  %29 = call noundef ptr @_ZNKSt7__cxx1112basic_stringIcSt11char_traitsIcESaIcEE5c_strEv(ptr noundef nonnull align 8 dereferenceable(32) %28) #14
  %30 = call i32 (ptr, ptr, ...) @fprintf(ptr noundef %27, ptr noundef @.str.52, ptr noundef %29) #14
  %31 = load i32, ptr %10, align 4, !tbaa !69
  switch i32 %31, label %47 [
    i32 1, label %32
    i32 0, label %37
    i32 2, label %42
  ]

32:                                               ; preds = %21
  %33 = load ptr, ptr %6, align 8, !tbaa !26
  %34 = getelementptr inbounds nuw %struct.t_psdata, ptr %33, i32 0, i32 0
  %35 = load ptr, ptr %34, align 8, !tbaa !17
  %36 = call i32 (ptr, ptr, ...) @fprintf(ptr noundef %35, ptr noundef @.str.53) #14
  br label %54

37:                                               ; preds = %21
  %38 = load ptr, ptr %6, align 8, !tbaa !26
  %39 = getelementptr inbounds nuw %struct.t_psdata, ptr %38, i32 0, i32 0
  %40 = load ptr, ptr %39, align 8, !tbaa !17
  %41 = call i32 (ptr, ptr, ...) @fprintf(ptr noundef %40, ptr noundef @.str.54) #14
  br label %54

42:                                               ; preds = %21
  %43 = load ptr, ptr %6, align 8, !tbaa !26
  %44 = getelementptr inbounds nuw %struct.t_psdata, ptr %43, i32 0, i32 0
  %45 = load ptr, ptr %44, align 8, !tbaa !17
  %46 = call i32 (ptr, ptr, ...) @fprintf(ptr noundef %45, ptr noundef @.str.55) #14
  br label %54

47:                                               ; preds = %21
  call void @llvm.lifetime.start.p0(i64 40, ptr %11) #14
  call void @_ZNSt10filesystem7__cxx114pathC2IA124_cS1_EERKT_NS1_6formatE(ptr noundef nonnull align 8 dereferenceable(40) %11, ptr noundef nonnull align 1 dereferenceable(124) @.str.56, i8 noundef zeroext 2)
  %48 = load i32, ptr %10, align 4, !tbaa !69
  invoke void (i32, ptr, i32, ptr, ...) @_Z9gmx_fataliRKNSt10filesystem7__cxx114pathEiPKcz(i32 noundef 0, ptr noundef nonnull align 8 dereferenceable(40) %11, i32 noundef 310, ptr noundef @.str.57, i32 noundef %48) #16
          to label %49 unwind label %50

49:                                               ; preds = %47
  unreachable

50:                                               ; preds = %47
  %51 = landingpad { ptr, i32 }
          cleanup
  %52 = extractvalue { ptr, i32 } %51, 0
  store ptr %52, ptr %12, align 8
  %53 = extractvalue { ptr, i32 } %51, 1
  store i32 %53, ptr %13, align 4
  call void @_ZNSt10filesystem7__cxx114pathD2Ev(ptr noundef nonnull align 8 dereferenceable(40) %11) #14
  call void @llvm.lifetime.end.p0(i64 40, ptr %11) #14
  br label %62

54:                                               ; preds = %42, %37, %32
  %55 = load ptr, ptr %6, align 8, !tbaa !26
  %56 = getelementptr inbounds nuw %struct.t_psdata, ptr %55, i32 0, i32 0
  %57 = load ptr, ptr %56, align 8, !tbaa !17
  %58 = load ptr, ptr %9, align 8, !tbaa !30
  %59 = call noundef ptr @_ZNKSt7__cxx1112basic_stringIcSt11char_traitsIcESaIcEE5c_strEv(ptr noundef nonnull align 8 dereferenceable(32) %58) #14
  %60 = call i32 (ptr, ptr, ...) @fprintf(ptr noundef %57, ptr noundef @.str.58, ptr noundef %59) #14
  br label %61

61:                                               ; preds = %54, %16
  ret void

62:                                               ; preds = %50
  %63 = load ptr, ptr %12, align 8
  %64 = load i32, ptr %13, align 4
  %65 = insertvalue { ptr, i32 } poison, ptr %63, 0
  %66 = insertvalue { ptr, i32 } %65, i32 %64, 1
  resume { ptr, i32 } %66
}