; Function Attrs: mustprogress uwtable
define void @_Z8ps_ctextP8t_psdataffRKNSt7__cxx1112basic_stringIcSt11char_traitsIcESaIcEEEi(ptr noundef readonly captures(none) %0, float noundef %1, float noundef %2, ptr noundef nonnull readonly align 8 captures(none) dereferenceable(32) %3, i32 noundef %4) local_unnamed_addr #3 personality ptr @__gxx_personality_v0 {
  %6 = alloca %"class.std::filesystem::__cxx11::path", align 8
  %7 = icmp eq i32 %4, 1
  %8 = load ptr, ptr %0, align 8, !tbaa !9
  %9 = fpext float %1 to double
  %10 = fpext float %2 to double
  %11 = tail call i32 (ptr, ptr, ...) @fprintf(ptr noundef %8, ptr noundef nonnull @.str.37, double noundef %9, double noundef %10) #18
  %12 = load ptr, ptr %0, align 8, !tbaa !9
  %13 = load ptr, ptr %3, align 8, !tbaa !25
  br i1 %7, label %14, label %16

14:                                               ; preds = %5
  %15 = tail call i32 (ptr, ptr, ...) @fprintf(ptr noundef %12, ptr noundef nonnull @.str.48, ptr noundef %13) #18
  br label %32

16:                                               ; preds = %5
  %17 = tail call i32 (ptr, ptr, ...) @fprintf(ptr noundef %12, ptr noundef nonnull @.str.52, ptr noundef %13) #18
  switch i32 %4, label %24 [
    i32 2, label %21
    i32 0, label %18
  ]

18:                                               ; preds = %16
  %19 = load ptr, ptr %0, align 8, !tbaa !9
  %20 = tail call i64 @fwrite(ptr nonnull @.str.54, i64 20, i64 1, ptr %19)
  br label %28

21:                                               ; preds = %16
  %22 = load ptr, ptr %0, align 8, !tbaa !9
  %23 = tail call i64 @fwrite(ptr nonnull @.str.55, i64 14, i64 1, ptr %22)
  br label %28

24:                                               ; preds = %16
  call void @llvm.lifetime.start.p0(i64 40, ptr nonnull %6) #18
  call void @_ZNSt10filesystem7__cxx114pathC2IA124_cS1_EERKT_NS1_6formatE(ptr noundef nonnull align 8 dereferenceable(40) %6, ptr noundef nonnull align 1 dereferenceable(124) @.str.56, i8 noundef zeroext 2)
  invoke void (i32, ptr, i32, ptr, ...) @_Z9gmx_fataliRKNSt10filesystem7__cxx114pathEiPKcz(i32 noundef 0, ptr noundef nonnull align 8 dereferenceable(40) %6, i32 noundef 310, ptr noundef nonnull @.str.57, i32 noundef %4) #19
          to label %25 unwind label %26

25:                                               ; preds = %24
  unreachable

26:                                               ; preds = %24
  %27 = landingpad { ptr, i32 }
          cleanup
  call void @_ZNSt10filesystem7__cxx114pathD2Ev(ptr noundef nonnull align 8 dereferenceable(40) %6) #18
  call void @llvm.lifetime.end.p0(i64 40, ptr nonnull %6) #18
  resume { ptr, i32 } %27

28:                                               ; preds = %21, %18
  %29 = load ptr, ptr %0, align 8, !tbaa !9
  %30 = load ptr, ptr %3, align 8, !tbaa !25
  %31 = tail call i32 (ptr, ptr, ...) @fprintf(ptr noundef %29, ptr noundef nonnull @.str.58, ptr noundef %30) #18
  br label %32

32:                                               ; preds = %28, %14
  ret void
}